target datalayout = "e-m:e-p270:32:32-p271:32:32-p272:64:64-i64:64-i128:128-f80:128-n8:16:32:64-S128"
target triple = "x86_64-pc-linux-gnu"

%struct._object = type { %union.anon, ptr }
%union.anon = type { i64 }
%struct._ffi_type = type { i64, i16, i16, ptr }
%struct.anon = type { i32, i32 }
%struct.tagCDataObject = type { %struct._object, ptr, i32, ptr, i64, i64, i64, ptr, %union.value }
%union.value = type { x86_fp80 }
%struct.tagPyCArgObject = type { %struct._object, ptr, i8, %union.anon.0, ptr, i64 }
%union.anon.0 = type { x86_fp80 }

@ffi_type_pointer = external global %struct._ffi_type, align 8

; Function Attrs: inlinehint nounwind uwtable
define internal void @UNLOCK_PTR(ptr noundef %0) #2 {
  %2 = alloca ptr, align 8
  store ptr %0, ptr %2, align 8, !tbaa !39
  ret void
}

; Function Attrs: inlinehint nounwind uwtable
define internal void @LOCK_PTR(ptr noundef %0) #2 {
  %2 = alloca ptr, align 8
  store ptr %0, ptr %2, align 8, !tbaa !39
  ret void
}

; Function Attrs: alwaysinline nounwind uwtable
define internal void @Py_INCREF(ptr noundef %0) #4 {
  %2 = alloca ptr, align 8
  %3 = alloca i32, align 4
  %4 = alloca i32, align 4
  store ptr %0, ptr %2, align 8, !tbaa !7
  call void @llvm.lifetime.start.p0(i64 4, ptr %3) #9
  %5 = load ptr, ptr %2, align 8, !tbaa !7
  %6 = getelementptr inbounds nuw %struct._object, ptr %5, i32 0, i32 0
  %7 = getelementptr inbounds nuw %struct.anon, ptr %6, i32 0, i32 0
  %8 = load i32, ptr %7, align 8, !tbaa !20
  store i32 %8, ptr %3, align 4, !tbaa !16
  %9 = load i32, ptr %3, align 4, !tbaa !16
  %10 = icmp slt i32 %9, 0
  br i1 %10, label %11, label %12

11:                                               ; preds = %1
  store i32 1, ptr %4, align 4
  br label %18

12:                                               ; preds = %1
  %13 = load i32, ptr %3, align 4, !tbaa !16
  %14 = add i32 %13, 1
  %15 = load ptr, ptr %2, align 8, !tbaa !7
  %16 = getelementptr inbounds nuw %struct._object, ptr %15, i32 0, i32 0
  %17 = getelementptr inbounds nuw %struct.anon, ptr %16, i32 0, i32 0
  store i32 %14, ptr %17, align 8, !tbaa !20
  store i32 0, ptr %4, align 4
  br label %18

18:                                               ; preds = %12, %11
  call void @llvm.lifetime.end.p0(i64 4, ptr %3) #9
  %19 = load i32, ptr %4, align 4
  switch i32 %19, label %21 [
    i32 0, label %20
    i32 1, label %20
  ]

20:                                               ; preds = %18, %18
  ret void

21:                                               ; preds = %18
  unreachable
}

; Function Attrs: inlinehint nounwind uwtable
define internal ptr @locked_deref(ptr noundef %0) #2 {
  %2 = alloca ptr, align 8
  %3 = alloca ptr, align 8
  store ptr %0, ptr %2, align 8, !tbaa !39
  call void @llvm.lifetime.start.p0(i64 8, ptr %3) #9
  %4 = load ptr, ptr %2, align 8, !tbaa !39
  call void @LOCK_PTR(ptr noundef %4)
  %5 = load ptr, ptr %2, align 8, !tbaa !39
  %6 = getelementptr inbounds nuw %struct.tagCDataObject, ptr %5, i32 0, i32 1
  %7 = load ptr, ptr %6, align 16, !tbaa !46
  %8 = load ptr, ptr %7, align 8, !tbaa !3
  store ptr %8, ptr %3, align 8, !tbaa !3
  %9 = load ptr, ptr %2, align 8, !tbaa !39
  call void @UNLOCK_PTR(ptr noundef %9)
  %10 = load ptr, ptr %3, align 8, !tbaa !3
  call void @llvm.lifetime.end.p0(i64 8, ptr %3) #9
  ret ptr %10
}

; Function Attrs: inlinehint nounwind uwtable
define internal ptr @_Py_NewRef(ptr noundef %0) #2 {
  %2 = alloca ptr, align 8
  store ptr %0, ptr %2, align 8, !tbaa !7
  %3 = load ptr, ptr %2, align 8, !tbaa !7
  call void @Py_INCREF(ptr noundef %3)
  %4 = load ptr, ptr %2, align 8, !tbaa !7
  ret ptr %4
}

; Function Attrs: nounwind uwtable
define internal ptr @PyCPointerType_paramfunc(ptr noundef %0, ptr noundef %1) #0 {
  %3 = alloca ptr, align 8
  %4 = alloca ptr, align 8
  %5 = alloca ptr, align 8
  %6 = alloca ptr, align 8
  %7 = alloca i32, align 4
  store ptr %0, ptr %4, align 8, !tbaa !3
  store ptr %1, ptr %5, align 8, !tbaa !39
  call void @llvm.lifetime.start.p0(i64 8, ptr %6) #9
  %8 = load ptr, ptr %4, align 8, !tbaa !3
  %9 = call ptr @PyCArgObject_new(ptr noundef %8)
  store ptr %9, ptr %6, align 8, !tbaa !135
  %10 = load ptr, ptr %6, align 8, !tbaa !135
  %11 = icmp eq ptr %10, null
  br i1 %11, label %12, label %13

12:                                               ; preds = %2
  store ptr null, ptr %3, align 8
  store i32 1, ptr %7, align 4
  br label %27

13:                                               ; preds = %2
  %14 = load ptr, ptr %6, align 8, !tbaa !135
  %15 = getelementptr inbounds nuw %struct.tagPyCArgObject, ptr %14, i32 0, i32 2
  store i8 80, ptr %15, align 8, !tbaa !152
  %16 = load ptr, ptr %6, align 8, !tbaa !135
  %17 = getelementptr inbounds nuw %struct.tagPyCArgObject, ptr %16, i32 0, i32 1
  store ptr @ffi_type_pointer, ptr %17, align 16, !tbaa !153
  %18 = load ptr, ptr %5, align 8, !tbaa !39
  %19 = call ptr @_Py_NewRef(ptr noundef %18)
  %20 = load ptr, ptr %6, align 8, !tbaa !135
  %21 = getelementptr inbounds nuw %struct.tagPyCArgObject, ptr %20, i32 0, i32 4
  store ptr %19, ptr %21, align 16, !tbaa !137
  %22 = load ptr, ptr %5, align 8, !tbaa !39
  %23 = call ptr @locked_deref(ptr noundef %22)
  %24 = load ptr, ptr %6, align 8, !tbaa !135
  %25 = getelementptr inbounds nuw %struct.tagPyCArgObject, ptr %24, i32 0, i32 3
  store ptr %23, ptr %25, align 16, !tbaa !20
  %26 = load ptr, ptr %6, align 8, !tbaa !135
  store ptr %26, ptr %3, align 8
  store i32 1, ptr %7, align 4
  br label %27

27:                                               ; preds = %13, %12
  call void @llvm.lifetime.end.p0(i64 8, ptr %6) #9
  %28 = load ptr, ptr %3, align 8
  ret ptr %28
}