; Function Attrs: nounwind uwtable
define internal ptr @PyCPointerType_paramfunc(ptr noundef %0, ptr noundef %1) #0 {
  %3 = tail call ptr @PyCArgObject_new(ptr noundef %0) #17
  %4 = icmp eq ptr %3, null
  br i1 %4, label %15, label %5

5:                                                ; preds = %2
  %6 = getelementptr inbounds nuw i8, ptr %3, i64 24
  store i8 80, ptr %6, align 8, !tbaa !137
  %7 = getelementptr inbounds nuw i8, ptr %3, i64 16
  store ptr @ffi_type_pointer, ptr %7, align 16, !tbaa !138
  %8 = load i32, ptr %1, align 8, !tbaa !23
  %9 = icmp slt i32 %8, 0
  br i1 %9, label %_Py_NewRef.exit, label %10

10:                                               ; preds = %5
  %11 = add nuw i32 %8, 1
  store i32 %11, ptr %1, align 8, !tbaa !23
  br label %_Py_NewRef.exit

_Py_NewRef.exit:                                  ; preds = %5, %10
  %12 = getelementptr inbounds nuw i8, ptr %3, i64 48
  store ptr %1, ptr %12, align 16, !tbaa !120
  %13 = getelementptr i8, ptr %1, i64 16
  %.val = load ptr, ptr %13, align 16, !tbaa !42
  %.val.val = load ptr, ptr %.val, align 8, !tbaa !46
  %14 = getelementptr inbounds nuw i8, ptr %3, i64 32
  store ptr %.val.val, ptr %14, align 16, !tbaa !23
  br label %15

15:                                               ; preds = %2, %_Py_NewRef.exit
  ret ptr %3
}